target datalayout = "e-m:e-p270:32:32-p271:32:32-p272:64:64-i64:64-i128:128-f80:128-n8:16:32:64-S128"
target triple = "x86_64-pc-linux-gnu"

%struct.WebPAuxStats = type { i32, [5 x float], [3 x i32], [2 x i32], [3 x [4 x i32]], [4 x i32], [4 x i32], [4 x i32], i32, i32, i32, i32, i32, i32, i32, i32, i32, i32, i32, [1 x i32] }

@stderr = external global ptr, align 8
@.str.127 = private unnamed_addr constant [2 x i8] c"\0A\00", align 1
@.str.203 = private unnamed_addr constant [39 x i8] c"Lossless-%s compressed size: %d bytes\0A\00", align 1
@.str.204 = private unnamed_addr constant [48 x i8] c"  * Header size: %d bytes, image data size: %d\0A\00", align 1
@.str.205 = private unnamed_addr constant [28 x i8] c"  * Lossless features used:\00", align 1
@.str.206 = private unnamed_addr constant [12 x i8] c" PREDICTION\00", align 1
@.str.207 = private unnamed_addr constant [23 x i8] c" CROSS-COLOR-TRANSFORM\00", align 1
@.str.208 = private unnamed_addr constant [16 x i8] c" SUBTRACT-GREEN\00", align 1
@.str.209 = private unnamed_addr constant [9 x i8] c" PALETTE\00", align 1
@.str.210 = private unnamed_addr constant [33 x i8] c"  * Precision Bits: histogram=%d\00", align 1
@.str.211 = private unnamed_addr constant [15 x i8] c" prediction=%d\00", align 1
@.str.212 = private unnamed_addr constant [16 x i8] c" cross-color=%d\00", align 1
@.str.213 = private unnamed_addr constant [11 x i8] c" cache=%d\0A\00", align 1
@.str.214 = private unnamed_addr constant [24 x i8] c"  * Palette size:   %d\0A\00", align 1

; Function Attrs: nounwind uwtable
define internal void @PrintFullLosslessInfo(ptr noundef %0, ptr noundef %1) #0 {
  %3 = alloca ptr, align 8
  %4 = alloca ptr, align 8
  store ptr %0, ptr %3, align 8
  store ptr %1, ptr %4, align 8
  %5 = load ptr, ptr @stderr, align 8
  %6 = load ptr, ptr %4, align 8
  %7 = load ptr, ptr %3, align 8
  %8 = getelementptr inbounds %struct.WebPAuxStats, ptr %7, i32 0, i32 15
  %9 = load i32, ptr %8, align 4
  %10 = call i32 (ptr, ptr, ...) @fprintf(ptr noundef %5, ptr noundef @.str.203, ptr noundef %6, i32 noundef %9) #6
  %11 = load ptr, ptr @stderr, align 8
  %12 = load ptr, ptr %3, align 8
  %13 = getelementptr inbounds %struct.WebPAuxStats, ptr %12, i32 0, i32 16
  %14 = load i32, ptr %13, align 4
  %15 = load ptr, ptr %3, align 8
  %16 = getelementptr inbounds %struct.WebPAuxStats, ptr %15, i32 0, i32 17
  %17 = load i32, ptr %16, align 4
  %18 = call i32 (ptr, ptr, ...) @fprintf(ptr noundef %11, ptr noundef @.str.204, i32 noundef %14, i32 noundef %17) #6
  %19 = load ptr, ptr %3, align 8
  %20 = getelementptr inbounds %struct.WebPAuxStats, ptr %19, i32 0, i32 10
  %21 = load i32, ptr %20, align 4
  %22 = icmp ne i32 %21, 0
  br i1 %22, label %23, label %64

23:                                               ; preds = %2
  %24 = load ptr, ptr @stderr, align 8
  %25 = call i32 (ptr, ptr, ...) @fprintf(ptr noundef %24, ptr noundef @.str.205) #6
  %26 = load ptr, ptr %3, align 8
  %27 = getelementptr inbounds %struct.WebPAuxStats, ptr %26, i32 0, i32 10
  %28 = load i32, ptr %27, align 4
  %29 = and i32 %28, 1
  %30 = icmp ne i32 %29, 0
  br i1 %30, label %31, label %34

31:                                               ; preds = %23
  %32 = load ptr, ptr @stderr, align 8
  %33 = call i32 (ptr, ptr, ...) @fprintf(ptr noundef %32, ptr noundef @.str.206) #6
  br label %34

34:                                               ; preds = %31, %23
  %35 = load ptr, ptr %3, align 8
  %36 = getelementptr inbounds %struct.WebPAuxStats, ptr %35, i32 0, i32 10
  %37 = load i32, ptr %36, align 4
  %38 = and i32 %37, 2
  %39 = icmp ne i32 %38, 0
  br i1 %39, label %40, label %43

40:                                               ; preds = %34
  %41 = load ptr, ptr @stderr, align 8
  %42 = call i32 (ptr, ptr, ...) @fprintf(ptr noundef %41, ptr noundef @.str.207) #6
  br label %43

43:                                               ; preds = %40, %34
  %44 = load ptr, ptr %3, align 8
  %45 = getelementptr inbounds %struct.WebPAuxStats, ptr %44, i32 0, i32 10
  %46 = load i32, ptr %45, align 4
  %47 = and i32 %46, 4
  %48 = icmp ne i32 %47, 0
  br i1 %48, label %49, label %52

49:                                               ; preds = %43
  %50 = load ptr, ptr @stderr, align 8
  %51 = call i32 (ptr, ptr, ...) @fprintf(ptr noundef %50, ptr noundef @.str.208) #6
  br label %52

52:                                               ; preds = %49, %43
  %53 = load ptr, ptr %3, align 8
  %54 = getelementptr inbounds %struct.WebPAuxStats, ptr %53, i32 0, i32 10
  %55 = load i32, ptr %54, align 4
  %56 = and i32 %55, 8
  %57 = icmp ne i32 %56, 0
  br i1 %57, label %58, label %61

58:                                               ; preds = %52
  %59 = load ptr, ptr @stderr, align 8
  %60 = call i32 (ptr, ptr, ...) @fprintf(ptr noundef %59, ptr noundef @.str.209) #6
  br label %61

61:                                               ; preds = %58, %52
  %62 = load ptr, ptr @stderr, align 8
  %63 = call i32 (ptr, ptr, ...) @fprintf(ptr noundef %62, ptr noundef @.str.127) #6
  br label %64

64:                                               ; preds = %61, %2
  %65 = load ptr, ptr @stderr, align 8
  %66 = load ptr, ptr %3, align 8
  %67 = getelementptr inbounds %struct.WebPAuxStats, ptr %66, i32 0, i32 11
  %68 = load i32, ptr %67, align 4
  %69 = call i32 (ptr, ptr, ...) @fprintf(ptr noundef %65, ptr noundef @.str.210, i32 noundef %68) #6
  %70 = load ptr, ptr %3, align 8
  %71 = getelementptr inbounds %struct.WebPAuxStats, ptr %70, i32 0, i32 10
  %72 = load i32, ptr %71, align 4
  %73 = and i32 %72, 1
  %74 = icmp ne i32 %73, 0
  br i1 %74, label %75, label %81

75:                                               ; preds = %64
  %76 = load ptr, ptr @stderr, align 8
  %77 = load ptr, ptr %3, align 8
  %78 = getelementptr inbounds %struct.WebPAuxStats, ptr %77, i32 0, i32 12
  %79 = load i32, ptr %78, align 4
  %80 = call i32 (ptr, ptr, ...) @fprintf(ptr noundef %76, ptr noundef @.str.211, i32 noundef %79) #6
  br label %81

81:                                               ; preds = %75, %64
  %82 = load ptr, ptr %3, align 8
  %83 = getelementptr inbounds %struct.WebPAuxStats, ptr %82, i32 0, i32 10
  %84 = load i32, ptr %83, align 4
  %85 = and i32 %84, 2
  %86 = icmp ne i32 %85, 0
  br i1 %86, label %87, label %93

87:                                               ; preds = %81
  %88 = load ptr, ptr @stderr, align 8
  %89 = load ptr, ptr %3, align 8
  %90 = getelementptr inbounds %struct.WebPAuxStats, ptr %89, i32 0, i32 18
  %91 = load i32, ptr %90, align 4
  %92 = call i32 (ptr, ptr, ...) @fprintf(ptr noundef %88, ptr noundef @.str.212, i32 noundef %91) #6
  br label %93

93:                                               ; preds = %87, %81
  %94 = load ptr, ptr @stderr, align 8
  %95 = load ptr, ptr %3, align 8
  %96 = getelementptr inbounds %struct.WebPAuxStats, ptr %95, i32 0, i32 13
  %97 = load i32, ptr %96, align 4
  %98 = call i32 (ptr, ptr, ...) @fprintf(ptr noundef %94, ptr noundef @.str.213, i32 noundef %97) #6
  %99 = load ptr, ptr %3, align 8
  %100 = getelementptr inbounds %struct.WebPAuxStats, ptr %99, i32 0, i32 14
  %101 = load i32, ptr %100, align 4
  %102 = icmp sgt i32 %101, 0
  br i1 %102, label %103, label %109

103:                                              ; preds = %93
  %104 = load ptr, ptr @stderr, align 8
  %105 = load ptr, ptr %3, align 8
  %106 = getelementptr inbounds %struct.WebPAuxStats, ptr %105, i32 0, i32 14
  %107 = load i32, ptr %106, align 4
  %108 = call i32 (ptr, ptr, ...) @fprintf(ptr noundef %104, ptr noundef @.str.214, i32 noundef %107) #6
  br label %109

109:                                              ; preds = %103, %93
  ret void
}