; Function Attrs: nofree nounwind uwtable
define internal fastcc void @PrintFullLosslessInfo(ptr nocapture noundef readonly %0, ptr noundef %1) unnamed_addr #3 {
  %3 = load ptr, ptr @stderr, align 8
  %4 = getelementptr inbounds i8, ptr %0, i64 168
  %5 = load i32, ptr %4, align 4
  %6 = tail call i32 (ptr, ptr, ...) @fprintf(ptr noundef %3, ptr noundef nonnull @.str.203, ptr noundef %1, i32 noundef %5) #14
  %7 = load ptr, ptr @stderr, align 8
  %8 = getelementptr inbounds i8, ptr %0, i64 172
  %9 = load i32, ptr %8, align 4
  %10 = getelementptr inbounds i8, ptr %0, i64 176
  %11 = load i32, ptr %10, align 4
  %12 = tail call i32 (ptr, ptr, ...) @fprintf(ptr noundef %7, ptr noundef nonnull @.str.204, i32 noundef %9, i32 noundef %11) #14
  %13 = getelementptr inbounds i8, ptr %0, i64 148
  %14 = load i32, ptr %13, align 4
  %.not = icmp eq i32 %14, 0
  br i1 %.not, label %43, label %15

15:                                               ; preds = %2
  %16 = load ptr, ptr @stderr, align 8
  %17 = tail call i64 @fwrite(ptr nonnull @.str.205, i64 27, i64 1, ptr %16) #12
  %18 = load i32, ptr %13, align 4
  %19 = and i32 %18, 1
  %.not17 = icmp eq i32 %19, 0
  br i1 %.not17, label %23, label %20

20:                                               ; preds = %15
  %21 = load ptr, ptr @stderr, align 8
  %22 = tail call i64 @fwrite(ptr nonnull @.str.206, i64 11, i64 1, ptr %21) #12
  %.pre = load i32, ptr %13, align 4
  br label %23

23:                                               ; preds = %20, %15
  %24 = phi i32 [ %.pre, %20 ], [ %18, %15 ]
  %25 = and i32 %24, 2
  %.not18 = icmp eq i32 %25, 0
  br i1 %.not18, label %29, label %26

26:                                               ; preds = %23
  %27 = load ptr, ptr @stderr, align 8
  %28 = tail call i64 @fwrite(ptr nonnull @.str.207, i64 22, i64 1, ptr %27) #12
  %.pre23 = load i32, ptr %13, align 4
  br label %29

29:                                               ; preds = %26, %23
  %30 = phi i32 [ %.pre23, %26 ], [ %24, %23 ]
  %31 = and i32 %30, 4
  %.not19 = icmp eq i32 %31, 0
  br i1 %.not19, label %35, label %32

32:                                               ; preds = %29
  %33 = load ptr, ptr @stderr, align 8
  %34 = tail call i64 @fwrite(ptr nonnull @.str.208, i64 15, i64 1, ptr %33) #12
  %.pre24 = load i32, ptr %13, align 4
  br label %35

35:                                               ; preds = %32, %29
  %36 = phi i32 [ %.pre24, %32 ], [ %30, %29 ]
  %37 = and i32 %36, 8
  %.not20 = icmp eq i32 %37, 0
  br i1 %.not20, label %41, label %38

38:                                               ; preds = %35
  %39 = load ptr, ptr @stderr, align 8
  %40 = tail call i64 @fwrite(ptr nonnull @.str.209, i64 8, i64 1, ptr %39) #12
  br label %41

41:                                               ; preds = %38, %35
  %42 = load ptr, ptr @stderr, align 8
  %fputc = tail call i32 @fputc(i32 10, ptr %42)
  br label %43

43:                                               ; preds = %41, %2
  %44 = load ptr, ptr @stderr, align 8
  %45 = getelementptr inbounds i8, ptr %0, i64 152
  %46 = load i32, ptr %45, align 4
  %47 = tail call i32 (ptr, ptr, ...) @fprintf(ptr noundef %44, ptr noundef nonnull @.str.210, i32 noundef %46) #14
  %48 = load i32, ptr %13, align 4
  %49 = and i32 %48, 1
  %.not21 = icmp eq i32 %49, 0
  br i1 %.not21, label %55, label %50

50:                                               ; preds = %43
  %51 = load ptr, ptr @stderr, align 8
  %52 = getelementptr inbounds i8, ptr %0, i64 156
  %53 = load i32, ptr %52, align 4
  %54 = tail call i32 (ptr, ptr, ...) @fprintf(ptr noundef %51, ptr noundef nonnull @.str.211, i32 noundef %53) #14
  %.pre25 = load i32, ptr %13, align 4
  br label %55

55:                                               ; preds = %50, %43
  %56 = phi i32 [ %.pre25, %50 ], [ %48, %43 ]
  %57 = and i32 %56, 2
  %.not22 = icmp eq i32 %57, 0
  br i1 %.not22, label %63, label %58

58:                                               ; preds = %55
  %59 = load ptr, ptr @stderr, align 8
  %60 = getelementptr inbounds i8, ptr %0, i64 180
  %61 = load i32, ptr %60, align 4
  %62 = tail call i32 (ptr, ptr, ...) @fprintf(ptr noundef %59, ptr noundef nonnull @.str.212, i32 noundef %61) #14
  br label %63

63:                                               ; preds = %58, %55
  %64 = load ptr, ptr @stderr, align 8
  %65 = getelementptr inbounds i8, ptr %0, i64 160
  %66 = load i32, ptr %65, align 4
  %67 = tail call i32 (ptr, ptr, ...) @fprintf(ptr noundef %64, ptr noundef nonnull @.str.213, i32 noundef %66) #14
  %68 = getelementptr inbounds i8, ptr %0, i64 164
  %69 = load i32, ptr %68, align 4
  %70 = icmp sgt i32 %69, 0
  br i1 %70, label %71, label %74

71:                                               ; preds = %63
  %72 = load ptr, ptr @stderr, align 8
  %73 = tail call i32 (ptr, ptr, ...) @fprintf(ptr noundef %72, ptr noundef nonnull @.str.214, i32 noundef %69) #14
  br label %74

74:                                               ; preds = %71, %63
  ret void
}